; Function Attrs: nounwind sspstrong uwtable
define dso_local void @tcg_gen_gvec_nor(i32 noundef %0, i32 noundef %1, i32 noundef %2, i32 noundef %3, i32 noundef %4, i32 noundef %5) local_unnamed_addr #2 {
  %7 = icmp eq i32 %2, %3
  br i1 %7, label %8, label %9

8:                                                ; preds = %6
  tail call void @tcg_gen_gvec_2(i32 noundef %1, i32 noundef %2, i32 noundef %4, i32 noundef %5, ptr noundef nonnull @tcg_gen_gvec_not.g)
  br label %10

9:                                                ; preds = %6
  tail call void @tcg_gen_gvec_3(i32 noundef %1, i32 noundef %2, i32 noundef %3, i32 noundef %4, i32 noundef %5, ptr noundef nonnull @tcg_gen_gvec_nor.g)
  br label %10

10:                                               ; preds = %9, %8
  ret void
}